; ModuleID = 'source-C-CXX/56/391.c'
source_filename = "source-C-CXX/56/391.c"
target datalayout = "e-m:e-p270:32:32-p271:32:32-p272:64:64-i64:64-f80:128-n8:16:32:64-S128"
target triple = "x86_64-pc-linux-gnu"

@__const.main.s1 = private unnamed_addr constant [4 x i8] c"er\00\00", align 1
@__const.main.s2 = private unnamed_addr constant [4 x i8] c"ly\00\00", align 1
@.str = private unnamed_addr constant [3 x i8] c"%d\00", align 1
@.str.1 = private unnamed_addr constant [3 x i8] c"%s\00", align 1

; Function Attrs: nofree nounwind sspstrong uwtable
define dso_local i32 @main() local_unnamed_addr #0 {
  %1 = alloca i32, align 4
  %2 = alloca [100 x i8], align 16
  %3 = alloca [100 x i8], align 16
  %4 = alloca [100 x [100 x i8]], align 16
  %5 = bitcast i32* %1 to i8*
  call void @llvm.lifetime.start.p0i8(i64 4, i8* nonnull %5) #6
  %6 = getelementptr inbounds [100 x i8], [100 x i8]* %2, i64 0, i64 0
  call void @llvm.lifetime.start.p0i8(i64 100, i8* nonnull %6) #6
  %7 = getelementptr inbounds [100 x i8], [100 x i8]* %3, i64 0, i64 0
  call void @llvm.lifetime.start.p0i8(i64 100, i8* nonnull %7) #6
  %8 = getelementptr inbounds [100 x [100 x i8]], [100 x [100 x i8]]* %4, i64 0, i64 0, i64 0
  call void @llvm.lifetime.start.p0i8(i64 10000, i8* nonnull %8) #6
  %9 = call i32 (i8*, ...) @__isoc99_scanf(i8* getelementptr inbounds ([3 x i8], [3 x i8]* @.str, i64 0, i64 0), i32* nonnull %1)
  %10 = bitcast [100 x i8]* %3 to i32*
  %11 = load i32, i32* %1, align 4, !tbaa !5
  %12 = icmp sgt i32 %11, 0
  br i1 %12, label %13, label %51

13:                                               ; preds = %0, %45
  %14 = phi i64 [ %47, %45 ], [ 0, %0 ]
  %15 = getelementptr inbounds [100 x [100 x i8]], [100 x [100 x i8]]* %4, i64 0, i64 %14, i64 0
  %16 = call i32 (i8*, ...) @__isoc99_scanf(i8* getelementptr inbounds ([3 x i8], [3 x i8]* @.str.1, i64 0, i64 0), i8* nonnull %15)
  %17 = call i64 @strlen(i8* noundef nonnull %15) #7
  %18 = shl i64 %17, 32
  %19 = ashr exact i64 %18, 32
  %20 = getelementptr inbounds [100 x [100 x i8]], [100 x [100 x i8]]* %4, i64 0, i64 %14, i64 %19
  %21 = getelementptr inbounds i8, i8* %20, i64 -2
  %22 = call i8* @strcpy(i8* noundef nonnull %6, i8* noundef nonnull %21) #6
  %23 = getelementptr inbounds i8, i8* %20, i64 -3
  %24 = call i8* @strcpy(i8* noundef nonnull %7, i8* noundef nonnull %23) #6
  %25 = call i32 @bcmp(i8* noundef nonnull dereferenceable(3) %6, i8* noundef nonnull dereferenceable(3) getelementptr inbounds ([4 x i8], [4 x i8]* @__const.main.s1, i64 0, i64 0), i64 3)
  %26 = icmp eq i32 %25, 0
  br i1 %26, label %27, label %31

27:                                               ; preds = %13
  %28 = add i64 %18, -8589934592
  %29 = ashr exact i64 %28, 32
  %30 = getelementptr inbounds [100 x [100 x i8]], [100 x [100 x i8]]* %4, i64 0, i64 %14, i64 %29
  store i8 0, i8* %30, align 1, !tbaa !9
  br label %31

31:                                               ; preds = %27, %13
  %32 = call i32 @bcmp(i8* noundef nonnull dereferenceable(3) %6, i8* noundef nonnull dereferenceable(3) getelementptr inbounds ([4 x i8], [4 x i8]* @__const.main.s2, i64 0, i64 0), i64 3)
  %33 = icmp eq i32 %32, 0
  br i1 %33, label %34, label %38

34:                                               ; preds = %31
  %35 = add i64 %18, -8589934592
  %36 = ashr exact i64 %35, 32
  %37 = getelementptr inbounds [100 x [100 x i8]], [100 x [100 x i8]]* %4, i64 0, i64 %14, i64 %36
  store i8 0, i8* %37, align 1, !tbaa !9
  br label %38

38:                                               ; preds = %34, %31
  %39 = load i32, i32* %10, align 16
  %40 = icmp eq i32 %39, 6778473
  br i1 %40, label %41, label %45

41:                                               ; preds = %38
  %42 = add i64 %18, -12884901888
  %43 = ashr exact i64 %42, 32
  %44 = getelementptr inbounds [100 x [100 x i8]], [100 x [100 x i8]]* %4, i64 0, i64 %14, i64 %43
  store i8 0, i8* %44, align 1, !tbaa !9
  br label %45

45:                                               ; preds = %41, %38
  %46 = call i32 @puts(i8* nonnull %15)
  %47 = add nuw nsw i64 %14, 1
  %48 = load i32, i32* %1, align 4, !tbaa !5
  %49 = sext i32 %48 to i64
  %50 = icmp slt i64 %47, %49
  br i1 %50, label %13, label %51, !llvm.loop !10

51:                                               ; preds = %45, %0
  call void @llvm.lifetime.end.p0i8(i64 10000, i8* nonnull %8) #6
  call void @llvm.lifetime.end.p0i8(i64 100, i8* nonnull %7) #6
  call void @llvm.lifetime.end.p0i8(i64 100, i8* nonnull %6) #6
  call void @llvm.lifetime.end.p0i8(i64 4, i8* nonnull %5) #6
  ret i32 0
}

; Function Attrs: argmemonly mustprogress nofree nosync nounwind willreturn
declare void @llvm.lifetime.start.p0i8(i64 immarg, i8* nocapture) #1

; Function Attrs: nofree nounwind
declare noundef i32 @__isoc99_scanf(i8* nocapture noundef readonly, ...) local_unnamed_addr #2

; Function Attrs: argmemonly mustprogress nofree nounwind readonly willreturn
declare i64 @strlen(i8* nocapture) local_unnamed_addr #3

; Function Attrs: argmemonly mustprogress nofree nounwind willreturn
declare i8* @strcpy(i8* noalias returned writeonly, i8* noalias nocapture readonly) local_unnamed_addr #4

; Function Attrs: nofree nounwind
declare noundef i32 @puts(i8* nocapture noundef readonly) local_unnamed_addr #2

; Function Attrs: argmemonly mustprogress nofree nosync nounwind willreturn
declare void @llvm.lifetime.end.p0i8(i64 immarg, i8* nocapture) #1

; Function Attrs: argmemonly nofree nounwind readonly willreturn
declare i32 @bcmp(i8* nocapture, i8* nocapture, i64) local_unnamed_addr #5


!llvm.module.flags = !{!0, !1, !2, !3}
!llvm.ident = !{!4}

!0 = !{i32 1, !"wchar_size", i32 4}
!1 = !{i32 7, !"PIC Level", i32 2}
!2 = !{i32 7, !"PIE Level", i32 2}
!3 = !{i32 7, !"uwtable", i32 1}
!4 = !{!"clang version 13.0.0"}
!5 = !{!6, !6, i64 0}
!6 = !{!"int", !7, i64 0}
!7 = !{!"omnipotent char", !8, i64 0}
!8 = !{!"Simple C/C++ TBAA"}
!9 = !{!7, !7, i64 0}
!10 = distinct !{!10, !11}
!11 = !{!"llvm.loop.mustprogress"}
